; Function Attrs: mustprogress uwtable
define noundef zeroext i1 @_Z25grpc_channel_arg_get_boolPK8grpc_argb(ptr noundef %0, i1 noundef zeroext %1) local_unnamed_addr #9 personality ptr @__gxx_personality_v0 {
  %3 = alloca i32, align 4
  %4 = alloca %"class.absl::lts_20240722::log_internal::LogMessage", align 8
  %5 = alloca %"class.absl::lts_20240722::log_internal::LogMessage", align 8
  %6 = icmp eq ptr %0, null
  br i1 %6, label %28, label %7

7:                                                ; preds = %2
  %8 = load i32, ptr %0, align 8, !tbaa !37
  %.not = icmp eq i32 %8, 1
  br i1 %.not, label %15, label %9

9:                                                ; preds = %7
  call void @llvm.lifetime.start.p0(i64 16, ptr nonnull %4) #37
  call void @_ZN4absl12lts_2024072212log_internal10LogMessageC1EPKciNS2_8ErrorTagE(ptr noundef nonnull align 8 dereferenceable(16) %4, ptr noundef nonnull @.str.3, i32 noundef 596) #39
  %10 = getelementptr inbounds nuw i8, ptr %0, i64 8
  %11 = invoke noundef nonnull align 8 dereferenceable(16) ptr @_ZN4absl12lts_2024072212log_internal10LogMessagelsIPcTnNSt9enable_ifIXntsr4absl16HasAbslStringifyIT_EE5valueEiE4typeELi0EEERS2_RKS6_(ptr noundef nonnull align 8 dereferenceable(16) %4, ptr noundef nonnull align 8 dereferenceable(8) %10)
          to label %12 unwind label %13

12:                                               ; preds = %9
  invoke void @_ZN4absl12lts_2024072212log_internal10LogMessage19CopyToEncodedBufferILNS2_10StringTypeE0EEEvSt17basic_string_viewIcSt11char_traitsIcEE(ptr noundef nonnull align 8 dereferenceable(16) %11, i64 31, ptr nonnull @.str.4)
          to label %_ZN4absl12lts_2024072212log_internal10LogMessagelsILi32EEERS2_RAT__Kc.exit unwind label %13

_ZN4absl12lts_2024072212log_internal10LogMessagelsILi32EEERS2_RAT__Kc.exit: ; preds = %12
  call void @_ZN4absl12lts_2024072212log_internal10LogMessageD1Ev(ptr noundef nonnull align 8 dereferenceable(16) %4) #40
  call void @llvm.lifetime.end.p0(i64 16, ptr nonnull %4) #37
  br label %28

13:                                               ; preds = %12, %9
  %14 = landingpad { ptr, i32 }
          cleanup
  call void @_ZN4absl12lts_2024072212log_internal10LogMessageD1Ev(ptr noundef nonnull align 8 dereferenceable(16) %4) #40
  call void @llvm.lifetime.end.p0(i64 16, ptr nonnull %4) #37
  br label %29

15:                                               ; preds = %7
  %16 = getelementptr inbounds nuw i8, ptr %0, i64 16
  %17 = load i32, ptr %16, align 8, !tbaa !41
  switch i32 %17, label %19 [
    i32 0, label %28
    i32 1, label %18
  ]

18:                                               ; preds = %15
  br label %28

19:                                               ; preds = %15
  call void @llvm.lifetime.start.p0(i64 16, ptr nonnull %5) #37
  call void @_ZN4absl12lts_2024072212log_internal10LogMessageC1EPKciNS2_8ErrorTagE(ptr noundef nonnull align 8 dereferenceable(16) %5, ptr noundef nonnull @.str.3, i32 noundef 605) #39
  %20 = getelementptr inbounds nuw i8, ptr %0, i64 8
  %21 = invoke noundef nonnull align 8 dereferenceable(16) ptr @_ZN4absl12lts_2024072212log_internal10LogMessagelsIPcTnNSt9enable_ifIXntsr4absl16HasAbslStringifyIT_EE5valueEiE4typeELi0EEERS2_RKS6_(ptr noundef nonnull align 8 dereferenceable(16) %5, ptr noundef nonnull align 8 dereferenceable(8) %20)
          to label %22 unwind label %26

22:                                               ; preds = %19
  invoke void @_ZN4absl12lts_2024072212log_internal10LogMessage19CopyToEncodedBufferILNS2_10StringTypeE0EEEvSt17basic_string_viewIcSt11char_traitsIcEE(ptr noundef nonnull align 8 dereferenceable(16) %21, i64 28, ptr nonnull @.str.5)
          to label %_ZN4absl12lts_2024072212log_internal10LogMessagelsILi29EEERS2_RAT__Kc.exit unwind label %26

_ZN4absl12lts_2024072212log_internal10LogMessagelsILi29EEERS2_RAT__Kc.exit: ; preds = %22
  %23 = load i32, ptr %16, align 8, !tbaa !41
  call void @llvm.lifetime.start.p0(i64 4, ptr nonnull %3)
  store i32 %23, ptr %3, align 4, !tbaa !35
  %24 = invoke noundef nonnull align 8 dereferenceable(16) ptr @_ZN4absl12lts_2024072212log_internal10LogMessagelsIiTnNSt9enable_ifIXntsr4absl16HasAbslStringifyIT_EE5valueEiE4typeELi0EEERS2_RKS5_(ptr noundef nonnull align 8 dereferenceable(16) %21, ptr noundef nonnull align 4 dereferenceable(4) %3)
          to label %25 unwind label %26

25:                                               ; preds = %_ZN4absl12lts_2024072212log_internal10LogMessagelsILi29EEERS2_RAT__Kc.exit
  call void @llvm.lifetime.end.p0(i64 4, ptr nonnull %3)
  invoke void @_ZN4absl12lts_2024072212log_internal10LogMessage19CopyToEncodedBufferILNS2_10StringTypeE0EEEvSt17basic_string_viewIcSt11char_traitsIcEE(ptr noundef nonnull align 8 dereferenceable(16) %24, i64 16, ptr nonnull @.str.6)
          to label %_ZN4absl12lts_2024072212log_internal10LogMessagelsILi17EEERS2_RAT__Kc.exit unwind label %26

_ZN4absl12lts_2024072212log_internal10LogMessagelsILi17EEERS2_RAT__Kc.exit: ; preds = %25
  call void @_ZN4absl12lts_2024072212log_internal10LogMessageD1Ev(ptr noundef nonnull align 8 dereferenceable(16) %5) #40
  call void @llvm.lifetime.end.p0(i64 16, ptr nonnull %5) #37
  br label %28

26:                                               ; preds = %25, %_ZN4absl12lts_2024072212log_internal10LogMessagelsILi29EEERS2_RAT__Kc.exit, %22, %19
  %27 = landingpad { ptr, i32 }
          cleanup
  call void @_ZN4absl12lts_2024072212log_internal10LogMessageD1Ev(ptr noundef nonnull align 8 dereferenceable(16) %5) #40
  call void @llvm.lifetime.end.p0(i64 16, ptr nonnull %5) #37
  br label %29

28:                                               ; preds = %15, %2, %_ZN4absl12lts_2024072212log_internal10LogMessagelsILi17EEERS2_RAT__Kc.exit, %18, %_ZN4absl12lts_2024072212log_internal10LogMessagelsILi32EEERS2_RAT__Kc.exit
  %.011 = phi i1 [ %1, %_ZN4absl12lts_2024072212log_internal10LogMessagelsILi32EEERS2_RAT__Kc.exit ], [ true, %_ZN4absl12lts_2024072212log_internal10LogMessagelsILi17EEERS2_RAT__Kc.exit ], [ true, %18 ], [ %1, %2 ], [ false, %15 ]
  ret i1 %.011

29:                                               ; preds = %26, %13
  %.pn = phi { ptr, i32 } [ %14, %13 ], [ %27, %26 ]
  resume { ptr, i32 } %.pn
}